target datalayout = "e-m:e-p270:32:32-p271:32:32-p272:64:64-i64:64-i128:128-f80:128-n8:16:32:64-S128"
target triple = "x86_64-pc-linux-gnu"

@hf_imf_mailbox_list_item = internal global i32 0, align 4
@ett_imf_mailbox_list = internal global i32 0, align 4
@.str.189 = private unnamed_addr constant [1 x i8] zeroinitializer, align 1
@.str.201 = private unnamed_addr constant [12 x i8] c", %d item%s\00", align 1
@.str.202 = private unnamed_addr constant [2 x i8] c"s\00", align 1

; Function Attrs: null_pointer_is_valid sspstrong uwtable
define internal void @dissect_imf_mailbox_list(ptr noundef %0, i32 noundef %1, i32 noundef %2, ptr noundef %3, ptr noundef %4) #0 {
  %6 = alloca ptr, align 8
  %7 = alloca i32, align 4
  %8 = alloca i32, align 4
  %9 = alloca ptr, align 8
  %10 = alloca ptr, align 8
  %11 = alloca ptr, align 8
  %12 = alloca ptr, align 8
  %13 = alloca i32, align 4
  %14 = alloca i32, align 4
  %15 = alloca i32, align 4
  %16 = alloca i32, align 4
  store ptr %0, ptr %6, align 8
  store i32 %1, ptr %7, align 4
  store i32 %2, ptr %8, align 4
  store ptr %3, ptr %9, align 8
  store ptr %4, ptr %10, align 8
  call void @llvm.lifetime.start.p0(i64 8, ptr %11) #9
  store ptr null, ptr %11, align 8
  call void @llvm.lifetime.start.p0(i64 8, ptr %12) #9
  store ptr null, ptr %12, align 8
  call void @llvm.lifetime.start.p0(i64 4, ptr %13) #9
  store i32 0, ptr %13, align 4
  call void @llvm.lifetime.start.p0(i64 4, ptr %14) #9
  call void @llvm.lifetime.start.p0(i64 4, ptr %15) #9
  call void @llvm.lifetime.start.p0(i64 4, ptr %16) #9
  %17 = load ptr, ptr %9, align 8
  %18 = load i32, ptr @ett_imf_mailbox_list, align 4
  %19 = call ptr @proto_item_add_subtree(ptr noundef %17, i32 noundef %18)
  store ptr %19, ptr %12, align 8
  %20 = load i32, ptr %7, align 4
  store i32 %20, ptr %14, align 4
  br label %21

21:                                               ; preds = %62, %5
  %22 = load ptr, ptr %6, align 8
  %23 = load i32, ptr %14, align 4
  %24 = load i32, ptr %8, align 4
  %25 = load i32, ptr %14, align 4
  %26 = load i32, ptr %7, align 4
  %27 = sub i32 %25, %26
  %28 = sub i32 %24, %27
  %29 = call i32 @tvb_find_uint8(ptr noundef %22, i32 noundef %23, i32 noundef %28, i8 noundef zeroext 44)
  store i32 %29, ptr %15, align 4
  %30 = load i32, ptr %13, align 4
  %31 = add i32 %30, 1
  store i32 %31, ptr %13, align 4
  %32 = load i32, ptr %15, align 4
  %33 = icmp eq i32 %32, -1
  br i1 %33, label %34, label %40

34:                                               ; preds = %21
  %35 = load i32, ptr %8, align 4
  %36 = load i32, ptr %14, align 4
  %37 = load i32, ptr %7, align 4
  %38 = sub i32 %36, %37
  %39 = sub i32 %35, %38
  store i32 %39, ptr %16, align 4
  br label %44

40:                                               ; preds = %21
  %41 = load i32, ptr %15, align 4
  %42 = load i32, ptr %14, align 4
  %43 = sub i32 %41, %42
  store i32 %43, ptr %16, align 4
  br label %44

44:                                               ; preds = %40, %34
  %45 = load ptr, ptr %12, align 8
  %46 = load i32, ptr @hf_imf_mailbox_list_item, align 4
  %47 = load ptr, ptr %6, align 8
  %48 = load i32, ptr %14, align 4
  %49 = load i32, ptr %16, align 4
  %50 = call ptr @proto_tree_add_item(ptr noundef %45, i32 noundef %46, ptr noundef %47, i32 noundef %48, i32 noundef %49, i32 noundef 0)
  store ptr %50, ptr %11, align 8
  %51 = load ptr, ptr %6, align 8
  %52 = load i32, ptr %14, align 4
  %53 = load i32, ptr %16, align 4
  %54 = load ptr, ptr %11, align 8
  %55 = load ptr, ptr %10, align 8
  call void @dissect_imf_mailbox(ptr noundef %51, i32 noundef %52, i32 noundef %53, ptr noundef %54, ptr noundef %55)
  %56 = load i32, ptr %15, align 4
  %57 = icmp ne i32 %56, -1
  br i1 %57, label %58, label %61

58:                                               ; preds = %44
  %59 = load i32, ptr %15, align 4
  %60 = add i32 %59, 1
  store i32 %60, ptr %14, align 4
  br label %61

61:                                               ; preds = %58, %44
  br label %62

62:                                               ; preds = %61
  %63 = load i32, ptr %15, align 4
  %64 = icmp ne i32 %63, -1
  br i1 %64, label %21, label %65, !llvm.loop !22

65:                                               ; preds = %62
  %66 = load ptr, ptr %9, align 8
  %67 = load i32, ptr %13, align 4
  %68 = load i32, ptr %13, align 4
  %69 = icmp eq i32 %68, 1
  %70 = select i1 %69, ptr @.str.189, ptr @.str.202
  call void (ptr, ptr, ...) @proto_item_append_text(ptr noundef %66, ptr noundef @.str.201, i32 noundef %67, ptr noundef %70)
  call void @llvm.lifetime.end.p0(i64 4, ptr %16) #9
  call void @llvm.lifetime.end.p0(i64 4, ptr %15) #9
  call void @llvm.lifetime.end.p0(i64 4, ptr %14) #9
  call void @llvm.lifetime.end.p0(i64 4, ptr %13) #9
  call void @llvm.lifetime.end.p0(i64 8, ptr %12) #9
  call void @llvm.lifetime.end.p0(i64 8, ptr %11) #9
  ret void
}